; Function Attrs: mustprogress nofree norecurse nosync nounwind willreturn memory(read, inaccessiblemem: none) uwtable
define ptr @Tru_ManFunc(ptr noundef readonly captures(none) %0, i32 noundef %1) local_unnamed_addr #8 {
  %3 = icmp eq i32 %1, 0
  br i1 %3, label %4, label %Tru_ManReadOne.exit

4:                                                ; preds = %2
  %5 = getelementptr inbounds nuw i8, ptr %0, i64 32
  %6 = load ptr, ptr %5, align 8, !tbaa !43
  br label %20

Tru_ManReadOne.exit:                              ; preds = %2
  %7 = getelementptr inbounds nuw i8, ptr %0, i64 24
  %8 = load ptr, ptr %7, align 8, !tbaa !19
  %9 = getelementptr inbounds nuw i8, ptr %8, i64 24
  %10 = load ptr, ptr %9, align 8, !tbaa !20
  %.val.i.i = load i32, ptr %8, align 8, !tbaa !23
  %11 = ashr i32 %1, %.val.i.i
  %12 = sext i32 %11 to i64
  %13 = getelementptr inbounds ptr, ptr %10, i64 %12
  %14 = load ptr, ptr %13, align 8, !tbaa !24
  %15 = getelementptr i8, ptr %8, i64 4
  %.val4.i.i = load i32, ptr %15, align 4, !tbaa !25
  %16 = and i32 %.val4.i.i, %1
  %17 = sext i32 %16 to i64
  %18 = getelementptr inbounds i64, ptr %14, i64 %17
  %19 = getelementptr inbounds nuw i8, ptr %18, i64 8
  br label %20

20:                                               ; preds = %Tru_ManReadOne.exit, %4
  %.0 = phi ptr [ %6, %4 ], [ %19, %Tru_ManReadOne.exit ]
  ret ptr %.0
}